target datalayout = "e-m:e-p270:32:32-p271:32:32-p272:64:64-i64:64-i128:128-f80:128-n8:16:32:64-S128"
target triple = "x86_64-unknown-linux-gnu"

%class.base_macro_solver = type { ptr, ptr, ptr, ptr }
%class.obj_hashtable = type { %class.core_hashtable.base.44, [4 x i8] }
%class.core_hashtable.base.44 = type <{ ptr, i32, i32, i32 }>
%class.hint_macro_solver = type { %class.base_macro_solver, %class.obj_map.49, %class.obj_pair_map, %class.ptr_vector.58, %class.obj_map.60, %class.ptr_vector.65, %class.obj_hashtable, %class.obj_hashtable, %class.backtrackable_set, %class.backtrackable_set.75, %class.obj_map.78, %class.obj_mark, %class.obj_hashtable }
%class.obj_map.49 = type { %class.core_hashtable.50 }
%class.core_hashtable.50 = type <{ ptr, i32, i32, i32, [4 x i8] }>
%class.obj_pair_map = type { %class.core_hashtable.54 }
%class.core_hashtable.54 = type <{ ptr, i32, i32, i32, [4 x i8] }>
%class.ptr_vector.58 = type { %class.vector.59 }
%class.vector.59 = type { ptr }
%class.obj_map.60 = type { %class.core_hashtable.61 }
%class.core_hashtable.61 = type <{ ptr, i32, i32, i32, [4 x i8] }>
%class.ptr_vector.65 = type { %class.vector.66 }
%class.vector.66 = type { ptr }
%class.backtrackable_set = type { %class.obj_hashtable.67, %class.svector.73, %class.svector.31 }
%class.obj_hashtable.67 = type { %class.core_hashtable.base.71, [4 x i8] }
%class.core_hashtable.base.71 = type <{ ptr, i32, i32, i32 }>
%class.svector.73 = type { %class.vector.74 }
%class.vector.74 = type { ptr }
%class.svector.31 = type { %class.vector.32 }
%class.vector.32 = type { ptr }
%class.backtrackable_set.75 = type { %"struct.hint_macro_solver::ev_handler", %class.obj_hashtable.67, %class.svector.76, %class.svector.31 }
%"struct.hint_macro_solver::ev_handler" = type { ptr }
%class.svector.76 = type { %class.vector.77 }
%class.vector.77 = type { ptr }
%class.obj_map.78 = type { %class.core_hashtable.79 }
%class.core_hashtable.79 = type <{ ptr, i32, i32, i32, [4 x i8] }>
%class.obj_mark = type { %struct.default_t2uint, %class.bit_vector }
%struct.default_t2uint = type { i8 }
%class.bit_vector = type { i32, i32, ptr }
%"class.core_hashtable<obj_map<func_decl, expr *>::obj_map_entry, obj_hash<obj_map<func_decl, expr *>::key_data>, default_eq<obj_map<func_decl, expr *>::key_data>>::iterator" = type { ptr, ptr }
%"struct.obj_map<func_decl, expr *>::key_data" = type { ptr, ptr }
%"class.obj_map<func_decl, expr *>::obj_map_entry" = type { %"struct.obj_map<func_decl, expr *>::key_data" }

; Function Attrs: mustprogress nounwind uwtable
define linkonce_odr hidden noundef zeroext i1 @_ZNK7obj_mapI9func_declP4exprE13obj_map_entry7is_usedEv(ptr noundef nonnull align 8 dereferenceable(16) %this) #5 comdat align 2 {
entry:
  %this.addr = alloca ptr, align 8
  store ptr %this, ptr %this.addr, align 8
  %this1 = load ptr, ptr %this.addr, align 8
  %m_data = getelementptr inbounds %"class.obj_map<func_decl, expr *>::obj_map_entry", ptr %this1, i32 0, i32 0
  %m_key = getelementptr inbounds %"struct.obj_map<func_decl, expr *>::key_data", ptr %m_data, i32 0, i32 0
  %0 = load ptr, ptr %m_key, align 8
  %cmp = icmp ne ptr %0, null
  br i1 %cmp, label %land.rhs, label %land.end

land.rhs:                                         ; preds = %entry
  %m_data2 = getelementptr inbounds %"class.obj_map<func_decl, expr *>::obj_map_entry", ptr %this1, i32 0, i32 0
  %m_key3 = getelementptr inbounds %"struct.obj_map<func_decl, expr *>::key_data", ptr %m_data2, i32 0, i32 0
  %1 = load ptr, ptr %m_key3, align 8
  %cmp4 = icmp ne ptr %1, inttoptr (i64 1 to ptr)
  br label %land.end

land.end:                                         ; preds = %land.rhs, %entry
  %2 = phi i1 [ false, %entry ], [ %cmp4, %land.rhs ]
  ret i1 %2
}

; Function Attrs: mustprogress uwtable
define linkonce_odr hidden void @_ZN14core_hashtableIN7obj_mapI9func_declP4exprE13obj_map_entryE8obj_hashINS4_8key_dataEE10default_eqIS7_EE8iteratorC2EPS5_SD_(ptr noundef nonnull align 8 dereferenceable(16) %this, ptr noundef %start, ptr noundef %end) unnamed_addr #4 comdat align 2 {
entry:
  %this.addr = alloca ptr, align 8
  %start.addr = alloca ptr, align 8
  %end.addr = alloca ptr, align 8
  store ptr %this, ptr %this.addr, align 8
  store ptr %start, ptr %start.addr, align 8
  store ptr %end, ptr %end.addr, align 8
  %this1 = load ptr, ptr %this.addr, align 8
  %m_curr = getelementptr inbounds %"class.core_hashtable<obj_map<func_decl, expr *>::obj_map_entry, obj_hash<obj_map<func_decl, expr *>::key_data>, default_eq<obj_map<func_decl, expr *>::key_data>>::iterator", ptr %this1, i32 0, i32 0
  %0 = load ptr, ptr %start.addr, align 8
  store ptr %0, ptr %m_curr, align 8
  %m_end = getelementptr inbounds %"class.core_hashtable<obj_map<func_decl, expr *>::obj_map_entry, obj_hash<obj_map<func_decl, expr *>::key_data>, default_eq<obj_map<func_decl, expr *>::key_data>>::iterator", ptr %this1, i32 0, i32 1
  %1 = load ptr, ptr %end.addr, align 8
  store ptr %1, ptr %m_end, align 8
  call void @_ZN14core_hashtableIN7obj_mapI9func_declP4exprE13obj_map_entryE8obj_hashINS4_8key_dataEE10default_eqIS7_EE8iterator12move_to_usedEv(ptr noundef nonnull align 8 dereferenceable(16) %this1)
  ret void
}

; Function Attrs: mustprogress nounwind uwtable
define linkonce_odr hidden void @_ZN14core_hashtableIN7obj_mapI9func_declP4exprE13obj_map_entryE8obj_hashINS4_8key_dataEE10default_eqIS7_EE8iterator12move_to_usedEv(ptr noundef nonnull align 8 dereferenceable(16) %this) #5 comdat align 2 {
entry:
  %this.addr = alloca ptr, align 8
  store ptr %this, ptr %this.addr, align 8
  %this1 = load ptr, ptr %this.addr, align 8
  br label %while.cond

while.cond:                                       ; preds = %while.body, %entry
  %m_curr = getelementptr inbounds %"class.core_hashtable<obj_map<func_decl, expr *>::obj_map_entry, obj_hash<obj_map<func_decl, expr *>::key_data>, default_eq<obj_map<func_decl, expr *>::key_data>>::iterator", ptr %this1, i32 0, i32 0
  %0 = load ptr, ptr %m_curr, align 8
  %m_end = getelementptr inbounds %"class.core_hashtable<obj_map<func_decl, expr *>::obj_map_entry, obj_hash<obj_map<func_decl, expr *>::key_data>, default_eq<obj_map<func_decl, expr *>::key_data>>::iterator", ptr %this1, i32 0, i32 1
  %1 = load ptr, ptr %m_end, align 8
  %cmp = icmp ne ptr %0, %1
  br i1 %cmp, label %land.rhs, label %land.end

land.rhs:                                         ; preds = %while.cond
  %m_curr2 = getelementptr inbounds %"class.core_hashtable<obj_map<func_decl, expr *>::obj_map_entry, obj_hash<obj_map<func_decl, expr *>::key_data>, default_eq<obj_map<func_decl, expr *>::key_data>>::iterator", ptr %this1, i32 0, i32 0
  %2 = load ptr, ptr %m_curr2, align 8
  %call = call noundef zeroext i1 @_ZNK7obj_mapI9func_declP4exprE13obj_map_entry7is_usedEv(ptr noundef nonnull align 8 dereferenceable(16) %2)
  %lnot = xor i1 %call, true
  br label %land.end

land.end:                                         ; preds = %land.rhs, %while.cond
  %3 = phi i1 [ false, %while.cond ], [ %lnot, %land.rhs ]
  br i1 %3, label %while.body, label %while.end

while.body:                                       ; preds = %land.end
  %m_curr3 = getelementptr inbounds %"class.core_hashtable<obj_map<func_decl, expr *>::obj_map_entry, obj_hash<obj_map<func_decl, expr *>::key_data>, default_eq<obj_map<func_decl, expr *>::key_data>>::iterator", ptr %this1, i32 0, i32 0
  %4 = load ptr, ptr %m_curr3, align 8
  %incdec.ptr = getelementptr inbounds %"class.obj_map<func_decl, expr *>::obj_map_entry", ptr %4, i32 1
  store ptr %incdec.ptr, ptr %m_curr3, align 8
  br label %while.cond, !llvm.loop !77

while.end:                                        ; preds = %land.end
  ret void
}

; Function Attrs: mustprogress nounwind uwtable
define linkonce_odr hidden noundef nonnull align 8 dereferenceable(16) ptr @_ZN7obj_mapI9func_declP4exprE13obj_map_entry8get_dataEv(ptr noundef nonnull align 8 dereferenceable(16) %this) #5 comdat align 2 {
entry:
  %this.addr = alloca ptr, align 8
  store ptr %this, ptr %this.addr, align 8
  %this1 = load ptr, ptr %this.addr, align 8
  %m_data = getelementptr inbounds %"class.obj_map<func_decl, expr *>::obj_map_entry", ptr %this1, i32 0, i32 0
  ret ptr %m_data
}

; Function Attrs: mustprogress uwtable
define linkonce_odr hidden { ptr, ptr } @_ZNK14core_hashtableIN7obj_mapI9func_declP4exprE13obj_map_entryE8obj_hashINS4_8key_dataEE10default_eqIS7_EE3endEv(ptr noundef nonnull align 8 dereferenceable(20) %this) #4 comdat align 2 {
entry:
  %retval = alloca %"class.core_hashtable<obj_map<func_decl, expr *>::obj_map_entry, obj_hash<obj_map<func_decl, expr *>::key_data>, default_eq<obj_map<func_decl, expr *>::key_data>>::iterator", align 8
  %this.addr = alloca ptr, align 8
  store ptr %this, ptr %this.addr, align 8
  %this1 = load ptr, ptr %this.addr, align 8
  %m_table = getelementptr inbounds %class.core_hashtable.79, ptr %this1, i32 0, i32 0
  %0 = load ptr, ptr %m_table, align 8
  %m_capacity = getelementptr inbounds %class.core_hashtable.79, ptr %this1, i32 0, i32 1
  %1 = load i32, ptr %m_capacity, align 8
  %idx.ext = zext i32 %1 to i64
  %add.ptr = getelementptr inbounds %"class.obj_map<func_decl, expr *>::obj_map_entry", ptr %0, i64 %idx.ext
  %m_table2 = getelementptr inbounds %class.core_hashtable.79, ptr %this1, i32 0, i32 0
  %2 = load ptr, ptr %m_table2, align 8
  %m_capacity3 = getelementptr inbounds %class.core_hashtable.79, ptr %this1, i32 0, i32 1
  %3 = load i32, ptr %m_capacity3, align 8
  %idx.ext4 = zext i32 %3 to i64
  %add.ptr5 = getelementptr inbounds %"class.obj_map<func_decl, expr *>::obj_map_entry", ptr %2, i64 %idx.ext4
  call void @_ZN14core_hashtableIN7obj_mapI9func_declP4exprE13obj_map_entryE8obj_hashINS4_8key_dataEE10default_eqIS7_EE8iteratorC2EPS5_SD_(ptr noundef nonnull align 8 dereferenceable(16) %retval, ptr noundef %add.ptr, ptr noundef %add.ptr5)
  %4 = load { ptr, ptr }, ptr %retval, align 8
  ret { ptr, ptr } %4
}

; Function Attrs: mustprogress uwtable
define linkonce_odr hidden { ptr, ptr } @_ZNK14core_hashtableIN7obj_mapI9func_declP4exprE13obj_map_entryE8obj_hashINS4_8key_dataEE10default_eqIS7_EE5beginEv(ptr noundef nonnull align 8 dereferenceable(20) %this) #4 comdat align 2 {
entry:
  %retval = alloca %"class.core_hashtable<obj_map<func_decl, expr *>::obj_map_entry, obj_hash<obj_map<func_decl, expr *>::key_data>, default_eq<obj_map<func_decl, expr *>::key_data>>::iterator", align 8
  %this.addr = alloca ptr, align 8
  store ptr %this, ptr %this.addr, align 8
  %this1 = load ptr, ptr %this.addr, align 8
  %m_table = getelementptr inbounds %class.core_hashtable.79, ptr %this1, i32 0, i32 0
  %0 = load ptr, ptr %m_table, align 8
  %m_table2 = getelementptr inbounds %class.core_hashtable.79, ptr %this1, i32 0, i32 0
  %1 = load ptr, ptr %m_table2, align 8
  %m_capacity = getelementptr inbounds %class.core_hashtable.79, ptr %this1, i32 0, i32 1
  %2 = load i32, ptr %m_capacity, align 8
  %idx.ext = zext i32 %2 to i64
  %add.ptr = getelementptr inbounds %"class.obj_map<func_decl, expr *>::obj_map_entry", ptr %1, i64 %idx.ext
  call void @_ZN14core_hashtableIN7obj_mapI9func_declP4exprE13obj_map_entryE8obj_hashINS4_8key_dataEE10default_eqIS7_EE8iteratorC2EPS5_SD_(ptr noundef nonnull align 8 dereferenceable(16) %retval, ptr noundef %0, ptr noundef %add.ptr)
  %3 = load { ptr, ptr }, ptr %retval, align 8
  ret { ptr, ptr } %3
}

; Function Attrs: mustprogress nounwind uwtable
define linkonce_odr hidden noundef nonnull align 8 dereferenceable(16) ptr @_ZN14core_hashtableIN7obj_mapI9func_declP4exprE13obj_map_entryE8obj_hashINS4_8key_dataEE10default_eqIS7_EE8iteratorppEv(ptr noundef nonnull align 8 dereferenceable(16) %this) #5 comdat align 2 {
entry:
  %this.addr = alloca ptr, align 8
  store ptr %this, ptr %this.addr, align 8
  %this1 = load ptr, ptr %this.addr, align 8
  %m_curr = getelementptr inbounds %"class.core_hashtable<obj_map<func_decl, expr *>::obj_map_entry, obj_hash<obj_map<func_decl, expr *>::key_data>, default_eq<obj_map<func_decl, expr *>::key_data>>::iterator", ptr %this1, i32 0, i32 0
  %0 = load ptr, ptr %m_curr, align 8
  %incdec.ptr = getelementptr inbounds %"class.obj_map<func_decl, expr *>::obj_map_entry", ptr %0, i32 1
  store ptr %incdec.ptr, ptr %m_curr, align 8
  call void @_ZN14core_hashtableIN7obj_mapI9func_declP4exprE13obj_map_entryE8obj_hashINS4_8key_dataEE10default_eqIS7_EE8iterator12move_to_usedEv(ptr noundef nonnull align 8 dereferenceable(16) %this1)
  ret ptr %this1
}

; Function Attrs: mustprogress nounwind uwtable
define linkonce_odr hidden noundef nonnull align 8 dereferenceable(16) ptr @_ZN14core_hashtableIN7obj_mapI9func_declP4exprE13obj_map_entryE8obj_hashINS4_8key_dataEE10default_eqIS7_EE8iteratordeEv(ptr noundef nonnull align 8 dereferenceable(16) %this) #5 comdat align 2 {
entry:
  %this.addr = alloca ptr, align 8
  store ptr %this, ptr %this.addr, align 8
  %this1 = load ptr, ptr %this.addr, align 8
  %m_curr = getelementptr inbounds %"class.core_hashtable<obj_map<func_decl, expr *>::obj_map_entry, obj_hash<obj_map<func_decl, expr *>::key_data>, default_eq<obj_map<func_decl, expr *>::key_data>>::iterator", ptr %this1, i32 0, i32 0
  %0 = load ptr, ptr %m_curr, align 8
  %call = call noundef nonnull align 8 dereferenceable(16) ptr @_ZN7obj_mapI9func_declP4exprE13obj_map_entry8get_dataEv(ptr noundef nonnull align 8 dereferenceable(16) %0)
  ret ptr %call
}

; Function Attrs: mustprogress nounwind uwtable
define linkonce_odr hidden noundef zeroext i1 @_ZNK14core_hashtableIN7obj_mapI9func_declP4exprE13obj_map_entryE8obj_hashINS4_8key_dataEE10default_eqIS7_EE8iteratorneERKSC_(ptr noundef nonnull align 8 dereferenceable(16) %this, ptr noundef nonnull align 8 dereferenceable(16) %it) #5 comdat align 2 {
entry:
  %this.addr = alloca ptr, align 8
  %it.addr = alloca ptr, align 8
  store ptr %this, ptr %this.addr, align 8
  store ptr %it, ptr %it.addr, align 8
  %this1 = load ptr, ptr %this.addr, align 8
  %m_curr = getelementptr inbounds %"class.core_hashtable<obj_map<func_decl, expr *>::obj_map_entry, obj_hash<obj_map<func_decl, expr *>::key_data>, default_eq<obj_map<func_decl, expr *>::key_data>>::iterator", ptr %this1, i32 0, i32 0
  %0 = load ptr, ptr %m_curr, align 8
  %1 = load ptr, ptr %it.addr, align 8
  %m_curr2 = getelementptr inbounds %"class.core_hashtable<obj_map<func_decl, expr *>::obj_map_entry, obj_hash<obj_map<func_decl, expr *>::key_data>, default_eq<obj_map<func_decl, expr *>::key_data>>::iterator", ptr %1, i32 0, i32 0
  %2 = load ptr, ptr %m_curr2, align 8
  %cmp = icmp ne ptr %0, %2
  ret i1 %cmp
}

; Function Attrs: mustprogress uwtable
define linkonce_odr hidden { ptr, ptr } @_ZNK7obj_mapI9func_declP4exprE3endEv(ptr noundef nonnull align 8 dereferenceable(24) %this) #4 comdat align 2 {
entry:
  %retval = alloca %"class.core_hashtable<obj_map<func_decl, expr *>::obj_map_entry, obj_hash<obj_map<func_decl, expr *>::key_data>, default_eq<obj_map<func_decl, expr *>::key_data>>::iterator", align 8
  %this.addr = alloca ptr, align 8
  store ptr %this, ptr %this.addr, align 8
  %this1 = load ptr, ptr %this.addr, align 8
  %m_table = getelementptr inbounds %class.obj_map.78, ptr %this1, i32 0, i32 0
  %call = call { ptr, ptr } @_ZNK14core_hashtableIN7obj_mapI9func_declP4exprE13obj_map_entryE8obj_hashINS4_8key_dataEE10default_eqIS7_EE3endEv(ptr noundef nonnull align 8 dereferenceable(20) %m_table)
  %0 = getelementptr inbounds { ptr, ptr }, ptr %retval, i32 0, i32 0
  %1 = extractvalue { ptr, ptr } %call, 0
  store ptr %1, ptr %0, align 8
  %2 = getelementptr inbounds { ptr, ptr }, ptr %retval, i32 0, i32 1
  %3 = extractvalue { ptr, ptr } %call, 1
  store ptr %3, ptr %2, align 8
  %4 = load { ptr, ptr }, ptr %retval, align 8
  ret { ptr, ptr } %4
}

; Function Attrs: mustprogress uwtable
define linkonce_odr hidden { ptr, ptr } @_ZNK7obj_mapI9func_declP4exprE5beginEv(ptr noundef nonnull align 8 dereferenceable(24) %this) #4 comdat align 2 {
entry:
  %retval = alloca %"class.core_hashtable<obj_map<func_decl, expr *>::obj_map_entry, obj_hash<obj_map<func_decl, expr *>::key_data>, default_eq<obj_map<func_decl, expr *>::key_data>>::iterator", align 8
  %this.addr = alloca ptr, align 8
  store ptr %this, ptr %this.addr, align 8
  %this1 = load ptr, ptr %this.addr, align 8
  %m_table = getelementptr inbounds %class.obj_map.78, ptr %this1, i32 0, i32 0
  %call = call { ptr, ptr } @_ZNK14core_hashtableIN7obj_mapI9func_declP4exprE13obj_map_entryE8obj_hashINS4_8key_dataEE10default_eqIS7_EE5beginEv(ptr noundef nonnull align 8 dereferenceable(20) %m_table)
  %0 = getelementptr inbounds { ptr, ptr }, ptr %retval, i32 0, i32 0
  %1 = extractvalue { ptr, ptr } %call, 0
  store ptr %1, ptr %0, align 8
  %2 = getelementptr inbounds { ptr, ptr }, ptr %retval, i32 0, i32 1
  %3 = extractvalue { ptr, ptr } %call, 1
  store ptr %3, ptr %2, align 8
  %4 = load { ptr, ptr }, ptr %retval, align 8
  ret { ptr, ptr } %4
}

; Function Attrs: mustprogress uwtable
define hidden void @_ZN17hint_macro_solver10set_interpEv(ptr noundef nonnull align 8 dereferenceable(328) %this) #4 align 2 {
entry:
  %this.addr = alloca ptr, align 8
  %__range1 = alloca ptr, align 8
  %__begin1 = alloca %"class.core_hashtable<obj_map<func_decl, expr *>::obj_map_entry, obj_hash<obj_map<func_decl, expr *>::key_data>, default_eq<obj_map<func_decl, expr *>::key_data>>::iterator", align 8
  %__end1 = alloca %"class.core_hashtable<obj_map<func_decl, expr *>::obj_map_entry, obj_hash<obj_map<func_decl, expr *>::key_data>, default_eq<obj_map<func_decl, expr *>::key_data>>::iterator", align 8
  %kv = alloca ptr, align 8
  %f = alloca ptr, align 8
  %def = alloca ptr, align 8
  store ptr %this, ptr %this.addr, align 8
  %this1 = load ptr, ptr %this.addr, align 8
  %m_fs = getelementptr inbounds %class.hint_macro_solver, ptr %this1, i32 0, i32 10
  store ptr %m_fs, ptr %__range1, align 8
  %0 = load ptr, ptr %__range1, align 8
  %call = call { ptr, ptr } @_ZNK7obj_mapI9func_declP4exprE5beginEv(ptr noundef nonnull align 8 dereferenceable(24) %0)
  %1 = getelementptr inbounds { ptr, ptr }, ptr %__begin1, i32 0, i32 0
  %2 = extractvalue { ptr, ptr } %call, 0
  store ptr %2, ptr %1, align 8
  %3 = getelementptr inbounds { ptr, ptr }, ptr %__begin1, i32 0, i32 1
  %4 = extractvalue { ptr, ptr } %call, 1
  store ptr %4, ptr %3, align 8
  %5 = load ptr, ptr %__range1, align 8
  %call2 = call { ptr, ptr } @_ZNK7obj_mapI9func_declP4exprE3endEv(ptr noundef nonnull align 8 dereferenceable(24) %5)
  %6 = getelementptr inbounds { ptr, ptr }, ptr %__end1, i32 0, i32 0
  %7 = extractvalue { ptr, ptr } %call2, 0
  store ptr %7, ptr %6, align 8
  %8 = getelementptr inbounds { ptr, ptr }, ptr %__end1, i32 0, i32 1
  %9 = extractvalue { ptr, ptr } %call2, 1
  store ptr %9, ptr %8, align 8
  br label %for.cond

for.cond:                                         ; preds = %for.inc, %entry
  %call3 = call noundef zeroext i1 @_ZNK14core_hashtableIN7obj_mapI9func_declP4exprE13obj_map_entryE8obj_hashINS4_8key_dataEE10default_eqIS7_EE8iteratorneERKSC_(ptr noundef nonnull align 8 dereferenceable(16) %__begin1, ptr noundef nonnull align 8 dereferenceable(16) %__end1)
  br i1 %call3, label %for.body, label %for.end

for.body:                                         ; preds = %for.cond
  %call4 = call noundef nonnull align 8 dereferenceable(16) ptr @_ZN14core_hashtableIN7obj_mapI9func_declP4exprE13obj_map_entryE8obj_hashINS4_8key_dataEE10default_eqIS7_EE8iteratordeEv(ptr noundef nonnull align 8 dereferenceable(16) %__begin1)
  store ptr %call4, ptr %kv, align 8
  %10 = load ptr, ptr %kv, align 8
  %m_key = getelementptr inbounds %"struct.obj_map<func_decl, expr *>::key_data", ptr %10, i32 0, i32 0
  %11 = load ptr, ptr %m_key, align 8
  store ptr %11, ptr %f, align 8
  %12 = load ptr, ptr %kv, align 8
  %m_value = getelementptr inbounds %"struct.obj_map<func_decl, expr *>::key_data", ptr %12, i32 0, i32 1
  %13 = load ptr, ptr %m_value, align 8
  store ptr %13, ptr %def, align 8
  %14 = load ptr, ptr %f, align 8
  %15 = load ptr, ptr %def, align 8
  call void @_ZN17base_macro_solver15set_else_interpEP9func_declP4expr(ptr noundef nonnull align 8 dereferenceable(32) %this1, ptr noundef %14, ptr noundef %15)
  br label %for.inc

for.inc:                                          ; preds = %for.body
  %call5 = call noundef nonnull align 8 dereferenceable(16) ptr @_ZN14core_hashtableIN7obj_mapI9func_declP4exprE13obj_map_entryE8obj_hashINS4_8key_dataEE10default_eqIS7_EE8iteratorppEv(ptr noundef nonnull align 8 dereferenceable(16) %__begin1)
  br label %for.cond

for.end:                                          ; preds = %for.cond
  ret void
}